target datalayout = "e-m:e-p270:32:32-p271:32:32-p272:64:64-i64:64-i128:128-f80:128-n8:16:32:64-S128"
target triple = "x86_64-pc-linux-gnu"

%struct.PyModuleDef = type { %struct.PyModuleDef_Base, ptr, ptr, i64, ptr, ptr, ptr, ptr, ptr }
%struct.PyModuleDef_Base = type { %struct._object, ptr, i64, ptr }
%struct._object = type { %union.anon, ptr }
%union.anon = type { i64 }
%struct.anon = type { i32, i32 }

@def_module_state_shared = internal global %struct.PyModuleDef { %struct.PyModuleDef_Base { %struct._object { %union.anon { i64 552977039360 }, ptr null }, ptr null, i64 0, ptr null }, ptr @.str.102, ptr @.str.103, i64 -1, ptr null, ptr null, ptr null, ptr null, ptr null }, align 8
@.str.1 = private unnamed_addr constant [6 x i8] c"Error\00", align 1
@PyExc_Exception = external global ptr, align 8

; Function Attrs: alwaysinline nounwind uwtable
define internal i32 @_Py_IsImmortal(ptr noundef %0) #3 {
  %2 = alloca ptr, align 8
  store ptr %0, ptr %2, align 8, !tbaa !3
  %3 = load ptr, ptr %2, align 8, !tbaa !3
  %4 = getelementptr inbounds nuw %struct._object, ptr %3, i32 0, i32 0
  %5 = getelementptr inbounds nuw %struct.anon, ptr %4, i32 0, i32 0
  %6 = load i32, ptr %5, align 8, !tbaa !8
  %7 = icmp slt i32 %6, 0
  %8 = zext i1 %7 to i32
  ret i32 %8
}

; Function Attrs: alwaysinline nounwind uwtable
define internal void @Py_DECREF(ptr noundef %0) #3 {
  %2 = alloca ptr, align 8
  store ptr %0, ptr %2, align 8, !tbaa !3
  %3 = load ptr, ptr %2, align 8, !tbaa !3
  %4 = call i32 @_Py_IsImmortal(ptr noundef %3)
  %5 = icmp ne i32 %4, 0
  br i1 %5, label %6, label %7

6:                                                ; preds = %1
  br label %16

7:                                                ; preds = %1
  %8 = load ptr, ptr %2, align 8, !tbaa !3
  %9 = getelementptr inbounds nuw %struct._object, ptr %8, i32 0, i32 0
  %10 = getelementptr inbounds nuw %struct.anon, ptr %9, i32 0, i32 0
  %11 = load i32, ptr %10, align 8, !tbaa !8
  %12 = add i32 %11, -1
  store i32 %12, ptr %10, align 8, !tbaa !8
  %13 = icmp eq i32 %12, 0
  br i1 %13, label %14, label %16

14:                                               ; preds = %7
  %15 = load ptr, ptr %2, align 8, !tbaa !3
  call void @_Py_Dealloc(ptr noundef %15)
  br label %16

16:                                               ; preds = %6, %14, %7
  ret void
}

; Function Attrs: nounwind uwtable
define ptr @PyInit__test_module_state_shared() #0 {
  %1 = alloca ptr, align 8
  %2 = alloca ptr, align 8
  %3 = alloca i32, align 4
  call void @llvm.lifetime.start.p0(i64 8, ptr %2) #5
  %4 = call ptr @PyModule_Create2(ptr noundef @def_module_state_shared, i32 noundef 1013)
  store ptr %4, ptr %2, align 8, !tbaa !3
  %5 = load ptr, ptr %2, align 8, !tbaa !3
  %6 = icmp eq ptr %5, null
  br i1 %6, label %7, label %8

7:                                                ; preds = %0
  store ptr null, ptr %1, align 8
  store i32 1, ptr %3, align 4
  br label %17

8:                                                ; preds = %0
  %9 = load ptr, ptr %2, align 8, !tbaa !3
  %10 = load ptr, ptr @PyExc_Exception, align 8, !tbaa !3
  %11 = call i32 @PyModule_AddObjectRef(ptr noundef %9, ptr noundef @.str.1, ptr noundef %10)
  %12 = icmp slt i32 %11, 0
  br i1 %12, label %13, label %15

13:                                               ; preds = %8
  %14 = load ptr, ptr %2, align 8, !tbaa !3
  call void @Py_DECREF(ptr noundef %14)
  store ptr null, ptr %1, align 8
  store i32 1, ptr %3, align 4
  br label %17

15:                                               ; preds = %8
  %16 = load ptr, ptr %2, align 8, !tbaa !3
  store ptr %16, ptr %1, align 8
  store i32 1, ptr %3, align 4
  br label %17

17:                                               ; preds = %15, %13, %7
  call void @llvm.lifetime.end.p0(i64 8, ptr %2) #5
  %18 = load ptr, ptr %1, align 8
  ret ptr %18
}