; Function Attrs: nounwind uwtable
define ptr @PyInit__test_module_state_shared() local_unnamed_addr #0 {
  %1 = tail call ptr @PyModule_Create2(ptr noundef nonnull @def_module_state_shared, i32 noundef 1013) #4
  %2 = icmp eq ptr %1, null
  br i1 %2, label %Py_DECREF.exit, label %3

3:                                                ; preds = %0
  %4 = load ptr, ptr @PyExc_Exception, align 8, !tbaa !3
  %5 = tail call i32 @PyModule_AddObjectRef(ptr noundef nonnull %1, ptr noundef nonnull @.str.1, ptr noundef %4) #4
  %6 = icmp slt i32 %5, 0
  br i1 %6, label %7, label %Py_DECREF.exit

7:                                                ; preds = %3
  %8 = load i32, ptr %1, align 8, !tbaa !8
  %.not.i = icmp sgt i32 %8, -1
  br i1 %.not.i, label %9, label %Py_DECREF.exit

9:                                                ; preds = %7
  %10 = add nsw i32 %8, -1
  store i32 %10, ptr %1, align 8, !tbaa !8
  %11 = icmp eq i32 %10, 0
  br i1 %11, label %12, label %Py_DECREF.exit

12:                                               ; preds = %9
  tail call void @_Py_Dealloc(ptr noundef nonnull %1) #4
  br label %Py_DECREF.exit

Py_DECREF.exit:                                   ; preds = %12, %9, %7, %3, %0
  %.0 = phi ptr [ null, %0 ], [ %1, %3 ], [ null, %7 ], [ null, %9 ], [ null, %12 ]
  ret ptr %.0
}